target datalayout = "e-m:e-p270:32:32-p271:32:32-p272:64:64-i64:64-i128:128-f80:128-n8:16:32:64-S128"
target triple = "x86_64-pc-linux-gnu"

%struct.expert_field = type { i32, i32 }

@hf_nfapi_prach_ce_level_0_number_of_repetitions_per_attempt = internal global i32 0, align 4
@ei_invalid_range = internal global %struct.expert_field zeroinitializer, align 4
@.str.1798 = private unnamed_addr constant [96 x i8] c"Invalid prach ce level #0 number of repetitions per attempt value [1, 2, 4, 8, 16, 32, 64, 128]\00", align 1

; Function Attrs: nounwind uwtable
define internal void @dissect_emtc_preach_ce_level_0_num_of_repeitions_per_attempt_value(ptr noundef %0, ptr noundef %1) #0 {
  %3 = alloca ptr, align 8
  %4 = alloca ptr, align 8
  %5 = alloca i32, align 4
  %6 = alloca ptr, align 8
  store ptr %0, ptr %3, align 8
  store ptr %1, ptr %4, align 8
  %7 = load ptr, ptr %3, align 8
  %8 = load i32, ptr @hf_nfapi_prach_ce_level_0_number_of_repetitions_per_attempt, align 4
  %9 = call ptr @ptvcursor_add_ret_uint(ptr noundef %7, i32 noundef %8, i32 noundef 2, i32 noundef 0, ptr noundef %5)
  store ptr %9, ptr %6, align 8
  %10 = load i32, ptr %5, align 4
  %11 = icmp eq i32 %10, 1
  br i1 %11, label %37, label %12

12:                                               ; preds = %2
  %13 = load i32, ptr %5, align 4
  %14 = icmp eq i32 %13, 2
  br i1 %14, label %37, label %15

15:                                               ; preds = %12
  %16 = load i32, ptr %5, align 4
  %17 = icmp eq i32 %16, 4
  br i1 %17, label %37, label %18

18:                                               ; preds = %15
  %19 = load i32, ptr %5, align 4
  %20 = icmp eq i32 %19, 8
  br i1 %20, label %37, label %21

21:                                               ; preds = %18
  %22 = load i32, ptr %5, align 4
  %23 = icmp eq i32 %22, 16
  br i1 %23, label %37, label %24

24:                                               ; preds = %21
  %25 = load i32, ptr %5, align 4
  %26 = icmp eq i32 %25, 32
  br i1 %26, label %37, label %27

27:                                               ; preds = %24
  %28 = load i32, ptr %5, align 4
  %29 = icmp eq i32 %28, 64
  br i1 %29, label %37, label %30

30:                                               ; preds = %27
  %31 = load i32, ptr %5, align 4
  %32 = icmp eq i32 %31, 128
  br i1 %32, label %37, label %33

33:                                               ; preds = %30
  %34 = load ptr, ptr %4, align 8
  %35 = load ptr, ptr %6, align 8
  %36 = call ptr (ptr, ptr, ptr, ptr, ...) @expert_add_info_format(ptr noundef %34, ptr noundef %35, ptr noundef @ei_invalid_range, ptr noundef @.str.1798)
  br label %37

37:                                               ; preds = %33, %30, %27, %24, %21, %18, %15, %12, %2
  ret void
}